; Function Attrs: mustprogress uwtable
define dso_local noundef i32 @_ZN11StringUtils7str2intERKNSt7__cxx1112basic_stringIcSt11char_traitsIcESaIcEEE(ptr noundef nonnull align 8 dereferenceable(32) %0) local_unnamed_addr #5 align 2 personality ptr @__gxx_personality_v0 {
  %2 = alloca %"class.std::__cxx11::basic_string", align 8
  %3 = alloca %"class.std::__cxx11::basic_stringstream", align 8
  %4 = alloca i32, align 4
  %5 = tail call noundef zeroext i1 @_ZNKSt7__cxx1112basic_stringIcSt11char_traitsIcESaIcEE5emptyEv(ptr noundef nonnull align 8 dereferenceable(32) %0) #18
  br i1 %5, label %17, label %6

6:                                                ; preds = %1
  %7 = tail call noundef nonnull align 1 dereferenceable(1) ptr @_ZNKSt7__cxx1112basic_stringIcSt11char_traitsIcESaIcEEixEm(ptr noundef nonnull align 8 dereferenceable(32) %0, i64 noundef 0) #18
  %8 = load i8, ptr %7, align 1
  %9 = icmp eq i8 %8, 40
  br i1 %9, label %10, label %17

10:                                               ; preds = %6
  %11 = tail call noundef i64 @_ZNKSt7__cxx1112basic_stringIcSt11char_traitsIcESaIcEE6lengthEv(ptr noundef nonnull align 8 dereferenceable(32) %0) #18
  %12 = add i64 %11, -2
  call void @_ZNKSt7__cxx1112basic_stringIcSt11char_traitsIcESaIcEE6substrEmm(ptr dead_on_unwind nonnull writable sret(%"class.std::__cxx11::basic_string") align 8 %2, ptr noundef nonnull align 8 dereferenceable(32) %0, i64 noundef 1, i64 noundef %12)
  %13 = invoke noundef i32 @_ZN11StringUtils7str2intERKNSt7__cxx1112basic_stringIcSt11char_traitsIcESaIcEEE(ptr noundef nonnull align 8 dereferenceable(32) %2)
          to label %14 unwind label %15

14:                                               ; preds = %10
  call void @_ZNSt7__cxx1112basic_stringIcSt11char_traitsIcESaIcEED1Ev(ptr noundef nonnull align 8 dereferenceable(32) %2) #18
  br label %28

15:                                               ; preds = %10
  %16 = landingpad { ptr, i32 }
          cleanup
  call void @_ZNSt7__cxx1112basic_stringIcSt11char_traitsIcESaIcEED1Ev(ptr noundef nonnull align 8 dereferenceable(32) %2) #18
  br label %29

17:                                               ; preds = %6, %1
  call void @_ZNSt7__cxx1118basic_stringstreamIcSt11char_traitsIcESaIcEEC1ERKNS_12basic_stringIcS2_S3_EESt13_Ios_Openmode(ptr noundef nonnull align 8 dereferenceable(128) %3, ptr noundef nonnull align 8 dereferenceable(32) %0, i32 noundef 24)
  store i32 -1, ptr %4, align 4
  %18 = call noundef i64 @_ZNKSt7__cxx1112basic_stringIcSt11char_traitsIcESaIcEE4findEPKcm(ptr noundef nonnull align 8 dereferenceable(32) %0, ptr noundef nonnull @.str.2, i64 noundef 0) #18
  %19 = icmp eq i64 %18, 0
  br i1 %19, label %20, label %.invoke

20:                                               ; preds = %17
  %21 = invoke noundef nonnull align 8 dereferenceable(16) ptr @_ZNSirsEPFRSt8ios_baseS0_E(ptr noundef nonnull align 8 dereferenceable(16) %3, ptr noundef nonnull @_ZSt3hexRSt8ios_base)
          to label %.invoke unwind label %22

22:                                               ; preds = %.invoke, %20
  %23 = landingpad { ptr, i32 }
          cleanup
  call void @_ZNSt7__cxx1118basic_stringstreamIcSt11char_traitsIcESaIcEED1Ev(ptr noundef nonnull align 8 dereferenceable(128) %3) #18
  br label %29

.invoke:                                          ; preds = %20, %17
  %24 = phi ptr [ %3, %17 ], [ %21, %20 ]
  %25 = invoke noundef nonnull align 8 dereferenceable(16) ptr @_ZNSirsERi(ptr noundef nonnull align 8 dereferenceable(16) %24, ptr noundef nonnull align 4 dereferenceable(4) %4)
          to label %26 unwind label %22

26:                                               ; preds = %.invoke
  %27 = load i32, ptr %4, align 4
  call void @_ZNSt7__cxx1118basic_stringstreamIcSt11char_traitsIcESaIcEED1Ev(ptr noundef nonnull align 8 dereferenceable(128) %3) #18
  br label %28

28:                                               ; preds = %26, %14
  %.09 = phi i32 [ %27, %26 ], [ %13, %14 ]
  ret i32 %.09

29:                                               ; preds = %22, %15
  %.pn = phi { ptr, i32 } [ %23, %22 ], [ %16, %15 ]
  resume { ptr, i32 } %.pn
}